target datalayout = "e-m:e-p270:32:32-p271:32:32-p272:64:64-i64:64-i128:128-f80:128-n8:16:32:64-S128"
target triple = "x86_64-pc-linux-gnu"

%"class.LIEF::PE::ResourceIcon" = type { %"class.LIEF::Object", i8, i8, i8, i8, i16, i16, i32, i32, i32, %"class.std::vector.38" }
%"class.LIEF::Object" = type { ptr }
%"class.std::vector.38" = type { %"struct.std::_Vector_base.39" }
%"struct.std::_Vector_base.39" = type { %"struct.std::_Vector_base<unsigned char, std::allocator<unsigned char>>::_Vector_impl" }
%"struct.std::_Vector_base<unsigned char, std::allocator<unsigned char>>::_Vector_impl" = type { %"struct.std::_Vector_base<unsigned char, std::allocator<unsigned char>>::_Vector_impl_data" }
%"struct.std::_Vector_base<unsigned char, std::allocator<unsigned char>>::_Vector_impl_data" = type { ptr, ptr, ptr }
%"struct.LIEF::PE::details::pe_icon_header" = type { i8, i8, i8, i8, i16, i16, i32, i32 }

; Function Attrs: mustprogress nounwind uwtable
define linkonce_odr hidden void @_ZNSt15__new_allocatorIhEC2Ev(ptr noundef nonnull align 1 dereferenceable(1) %0) unnamed_addr #0 comdat align 2 {
  %2 = alloca ptr, align 8
  store ptr %0, ptr %2, align 8, !tbaa !138
  ret void
}

; Function Attrs: mustprogress nounwind uwtable
define linkonce_odr hidden void @_ZNSt12_Vector_baseIhSaIhEE17_Vector_impl_dataC2Ev(ptr noundef nonnull align 8 dereferenceable(24) %0) unnamed_addr #0 comdat align 2 {
  %2 = alloca ptr, align 8
  store ptr %0, ptr %2, align 8, !tbaa !224
  %3 = load ptr, ptr %2, align 8
  %4 = getelementptr inbounds nuw %"struct.std::_Vector_base<unsigned char, std::allocator<unsigned char>>::_Vector_impl_data", ptr %3, i32 0, i32 0
  store ptr null, ptr %4, align 8, !tbaa !77
  %5 = getelementptr inbounds nuw %"struct.std::_Vector_base<unsigned char, std::allocator<unsigned char>>::_Vector_impl_data", ptr %3, i32 0, i32 1
  store ptr null, ptr %5, align 8, !tbaa !78
  %6 = getelementptr inbounds nuw %"struct.std::_Vector_base<unsigned char, std::allocator<unsigned char>>::_Vector_impl_data", ptr %3, i32 0, i32 2
  store ptr null, ptr %6, align 8, !tbaa !195
  ret void
}

; Function Attrs: mustprogress nounwind uwtable
define linkonce_odr hidden void @_ZNSaIhEC2Ev(ptr noundef nonnull align 1 dereferenceable(1) %0) unnamed_addr #0 comdat align 2 {
  %2 = alloca ptr, align 8
  store ptr %0, ptr %2, align 8, !tbaa !136
  %3 = load ptr, ptr %2, align 8
  call void @_ZNSt15__new_allocatorIhEC2Ev(ptr noundef nonnull align 1 dereferenceable(1) %3) #20
  ret void
}

; Function Attrs: mustprogress nounwind uwtable
define linkonce_odr hidden void @_ZNSt12_Vector_baseIhSaIhEE12_Vector_implC2Ev(ptr noundef nonnull align 8 dereferenceable(24) %0) unnamed_addr #0 comdat align 2 {
  %2 = alloca ptr, align 8
  store ptr %0, ptr %2, align 8, !tbaa !134
  %3 = load ptr, ptr %2, align 8
  call void @_ZNSaIhEC2Ev(ptr noundef nonnull align 1 dereferenceable(1) %3) #20
  call void @_ZNSt12_Vector_baseIhSaIhEE17_Vector_impl_dataC2Ev(ptr noundef nonnull align 8 dereferenceable(24) %3) #20
  ret void
}

; Function Attrs: mustprogress nounwind uwtable
define linkonce_odr hidden void @_ZNSt12_Vector_baseIhSaIhEEC2Ev(ptr noundef nonnull align 8 dereferenceable(24) %0) unnamed_addr #0 comdat align 2 {
  %2 = alloca ptr, align 8
  store ptr %0, ptr %2, align 8, !tbaa !132
  %3 = load ptr, ptr %2, align 8
  %4 = getelementptr inbounds nuw %"struct.std::_Vector_base.39", ptr %3, i32 0, i32 0
  call void @_ZNSt12_Vector_baseIhSaIhEE12_Vector_implC2Ev(ptr noundef nonnull align 8 dereferenceable(24) %4) #20
  ret void
}

; Function Attrs: mustprogress nounwind uwtable
define linkonce_odr hidden void @_ZNSt6vectorIhSaIhEEC2Ev(ptr noundef nonnull align 8 dereferenceable(24) %0) unnamed_addr #0 comdat align 2 {
  %2 = alloca ptr, align 8
  store ptr %0, ptr %2, align 8, !tbaa !46
  %3 = load ptr, ptr %2, align 8
  call void @_ZNSt12_Vector_baseIhSaIhEEC2Ev(ptr noundef nonnull align 8 dereferenceable(24) %3) #20
  ret void
}

; Function Attrs: mustprogress nounwind uwtable
define void @_ZN4LIEF2PE12ResourceIconC2ERKNS0_7details14pe_icon_headerE(ptr noundef nonnull align 8 dereferenceable(56) %0, ptr noundef nonnull align 1 dereferenceable(16) %1) unnamed_addr #0 align 2 {
  %3 = alloca ptr, align 8
  %4 = alloca ptr, align 8
  store ptr %0, ptr %3, align 8, !tbaa !15
  store ptr %1, ptr %4, align 8, !tbaa !48
  %5 = load ptr, ptr %3, align 8
  call void @_ZN4LIEF6ObjectC2Ev(ptr noundef nonnull align 8 dereferenceable(8) %5)
  store ptr getelementptr inbounds inrange(-16, 40) ({ [7 x ptr] }, ptr @_ZTVN4LIEF2PE12ResourceIconE, i32 0, i32 0, i32 2), ptr %5, align 8, !tbaa !19
  %6 = getelementptr inbounds nuw %"class.LIEF::PE::ResourceIcon", ptr %5, i32 0, i32 1
  %7 = load ptr, ptr %4, align 8, !tbaa !48
  %8 = getelementptr inbounds nuw %"struct.LIEF::PE::details::pe_icon_header", ptr %7, i32 0, i32 0
  %9 = load i8, ptr %8, align 1, !tbaa !50
  store i8 %9, ptr %6, align 8, !tbaa !25
  %10 = getelementptr inbounds nuw %"class.LIEF::PE::ResourceIcon", ptr %5, i32 0, i32 2
  %11 = load ptr, ptr %4, align 8, !tbaa !48
  %12 = getelementptr inbounds nuw %"struct.LIEF::PE::details::pe_icon_header", ptr %11, i32 0, i32 1
  %13 = load i8, ptr %12, align 1, !tbaa !52
  store i8 %13, ptr %10, align 1, !tbaa !33
  %14 = getelementptr inbounds nuw %"class.LIEF::PE::ResourceIcon", ptr %5, i32 0, i32 3
  %15 = load ptr, ptr %4, align 8, !tbaa !48
  %16 = getelementptr inbounds nuw %"struct.LIEF::PE::details::pe_icon_header", ptr %15, i32 0, i32 2
  %17 = load i8, ptr %16, align 1, !tbaa !53
  store i8 %17, ptr %14, align 2, !tbaa !35
  %18 = getelementptr inbounds nuw %"class.LIEF::PE::ResourceIcon", ptr %5, i32 0, i32 4
  %19 = load ptr, ptr %4, align 8, !tbaa !48
  %20 = getelementptr inbounds nuw %"struct.LIEF::PE::details::pe_icon_header", ptr %19, i32 0, i32 3
  %21 = load i8, ptr %20, align 1, !tbaa !54
  store i8 %21, ptr %18, align 1, !tbaa !37
  %22 = getelementptr inbounds nuw %"class.LIEF::PE::ResourceIcon", ptr %5, i32 0, i32 5
  %23 = load ptr, ptr %4, align 8, !tbaa !48
  %24 = getelementptr inbounds nuw %"struct.LIEF::PE::details::pe_icon_header", ptr %23, i32 0, i32 4
  %25 = load i16, ptr %24, align 1, !tbaa !55
  store i16 %25, ptr %22, align 4, !tbaa !39
  %26 = getelementptr inbounds nuw %"class.LIEF::PE::ResourceIcon", ptr %5, i32 0, i32 6
  %27 = load ptr, ptr %4, align 8, !tbaa !48
  %28 = getelementptr inbounds nuw %"struct.LIEF::PE::details::pe_icon_header", ptr %27, i32 0, i32 5
  %29 = load i16, ptr %28, align 1, !tbaa !56
  store i16 %29, ptr %26, align 2, !tbaa !41
  %30 = getelementptr inbounds nuw %"class.LIEF::PE::ResourceIcon", ptr %5, i32 0, i32 7
  store i32 -1, ptr %30, align 8, !tbaa !43
  %31 = getelementptr inbounds nuw %"class.LIEF::PE::ResourceIcon", ptr %5, i32 0, i32 8
  store i32 0, ptr %31, align 4, !tbaa !44
  %32 = getelementptr inbounds nuw %"class.LIEF::PE::ResourceIcon", ptr %5, i32 0, i32 9
  store i32 0, ptr %32, align 8, !tbaa !45
  %33 = getelementptr inbounds nuw %"class.LIEF::PE::ResourceIcon", ptr %5, i32 0, i32 10
  call void @_ZNSt6vectorIhSaIhEEC2Ev(ptr noundef nonnull align 8 dereferenceable(24) %33) #20
  ret void
}