; Function Attrs: mustprogress nounwind uwtable
define void @_ZN4LIEF2PE12ResourceIconC2ERKNS0_7details14pe_icon_headerE(ptr noundef nonnull align 8 dereferenceable(56) %0, ptr noundef nonnull readonly align 1 captures(none) dereferenceable(16) %1) unnamed_addr #1 align 2 {
  tail call void @_ZN4LIEF6ObjectC2Ev(ptr noundef nonnull align 8 dereferenceable(8) %0) #21
  store ptr getelementptr inbounds nuw inrange(-16, 40) (i8, ptr @_ZTVN4LIEF2PE12ResourceIconE, i64 16), ptr %0, align 8, !tbaa !3
  %3 = getelementptr inbounds nuw i8, ptr %0, i64 8
  %4 = load i8, ptr %1, align 1, !tbaa !34
  store i8 %4, ptr %3, align 8, !tbaa !11
  %5 = getelementptr inbounds nuw i8, ptr %0, i64 9
  %6 = getelementptr inbounds nuw i8, ptr %1, i64 1
  %7 = load i8, ptr %6, align 1, !tbaa !36
  store i8 %7, ptr %5, align 1, !tbaa !21
  %8 = getelementptr inbounds nuw i8, ptr %0, i64 10
  %9 = getelementptr inbounds nuw i8, ptr %1, i64 2
  %10 = load i8, ptr %9, align 1, !tbaa !37
  store i8 %10, ptr %8, align 2, !tbaa !23
  %11 = getelementptr inbounds nuw i8, ptr %0, i64 11
  %12 = getelementptr inbounds nuw i8, ptr %1, i64 3
  %13 = load i8, ptr %12, align 1, !tbaa !38
  store i8 %13, ptr %11, align 1, !tbaa !25
  %14 = getelementptr inbounds nuw i8, ptr %0, i64 12
  %15 = getelementptr inbounds nuw i8, ptr %1, i64 4
  %16 = load i16, ptr %15, align 1, !tbaa !39
  store i16 %16, ptr %14, align 4, !tbaa !27
  %17 = getelementptr inbounds nuw i8, ptr %0, i64 14
  %18 = getelementptr inbounds nuw i8, ptr %1, i64 6
  %19 = load i16, ptr %18, align 1, !tbaa !40
  store i16 %19, ptr %17, align 2, !tbaa !29
  %20 = getelementptr inbounds nuw i8, ptr %0, i64 16
  store i32 -1, ptr %20, align 8, !tbaa !31
  %21 = getelementptr inbounds nuw i8, ptr %0, i64 20
  store i32 0, ptr %21, align 4, !tbaa !32
  %22 = getelementptr inbounds nuw i8, ptr %0, i64 24
  store i32 0, ptr %22, align 8, !tbaa !33
  %23 = getelementptr inbounds nuw i8, ptr %0, i64 32
  tail call void @llvm.memset.p0.i64(ptr noundef nonnull align 8 dereferenceable(24) %23, i8 0, i64 24, i1 false)
  ret void
}